target datalayout = "e-m:e-p270:32:32-p271:32:32-p272:64:64-i64:64-i128:128-f80:128-n8:16:32:64-S128"
target triple = "x86_64-pc-linux-gnu"

%struct.cli_ctx_tag = type { ptr, ptr, ptr, ptr, ptr, ptr, ptr, i64, ptr, i32, i32, ptr, i32, i32, ptr, [16 x i8], ptr, ptr, ptr, ptr, ptr, ptr, %struct.timeval, i8, i8 }
%struct.timeval = type { i64, i64 }

@.str.151 = private unnamed_addr constant [18 x i8] c"in ooxml_extn_cb\0A\00", align 1
@.str.152 = private unnamed_addr constant [27 x i8] c"OOXML_ERROR_EXTN_XMLPARSER\00", align 1
@.str.153 = private unnamed_addr constant [27 x i8] c"OOXML_ERROR_EXTN_MALFORMED\00", align 1

; Function Attrs: nounwind uwtable
define internal i32 @ooxml_extn_cb(i32 noundef %0, ptr noundef %1, ptr noundef %2, ptr noundef %3, i32 noundef %4) #0 {
  %6 = alloca i32, align 4
  %7 = alloca ptr, align 8
  %8 = alloca ptr, align 8
  %9 = alloca ptr, align 8
  %10 = alloca i32, align 4
  %11 = alloca i32, align 4
  store i32 %0, ptr %6, align 4
  store ptr %1, ptr %7, align 8
  store ptr %2, ptr %8, align 8
  store ptr %3, ptr %9, align 8
  store i32 %4, ptr %10, align 4
  call void (ptr, ...) @cli_dbgmsg(ptr noundef @.str.151)
  %12 = load i32, ptr %6, align 4
  %13 = load ptr, ptr %8, align 8
  %14 = call i32 @ooxml_parse_document(i32 noundef %12, ptr noundef %13)
  store i32 %14, ptr %11, align 4
  %15 = load i32, ptr %11, align 4
  %16 = icmp eq i32 %15, 27
  br i1 %16, label %17, label %22

17:                                               ; preds = %5
  %18 = load ptr, ptr %8, align 8
  %19 = getelementptr inbounds %struct.cli_ctx_tag, ptr %18, i32 0, i32 21
  %20 = load ptr, ptr %19, align 8
  %21 = call i32 @cli_json_parse_error(ptr noundef %20, ptr noundef @.str.152)
  br label %31

22:                                               ; preds = %5
  %23 = load i32, ptr %11, align 4
  %24 = icmp eq i32 %23, 26
  br i1 %24, label %25, label %30

25:                                               ; preds = %22
  %26 = load ptr, ptr %8, align 8
  %27 = getelementptr inbounds %struct.cli_ctx_tag, ptr %26, i32 0, i32 21
  %28 = load ptr, ptr %27, align 8
  %29 = call i32 @cli_json_parse_error(ptr noundef %28, ptr noundef @.str.153)
  br label %30

30:                                               ; preds = %25, %22
  br label %31

31:                                               ; preds = %30, %17
  %32 = load i32, ptr %11, align 4
  ret i32 %32
}